target datalayout = "e-m:e-p270:32:32-p271:32:32-p272:64:64-i64:64-i128:128-f80:128-n8:16:32:64-S128"
target triple = "x86_64-unknown-linux-gnu"

%struct.SHA256state_st = type { [8 x i32], i32, i32, [16 x i32], i32, i32 }

; Function Attrs: nounwind uwtable
define dso_local i32 @SHA256_Init(ptr noundef %c) #0 {
entry:
  %c.addr = alloca ptr, align 8
  store ptr %c, ptr %c.addr, align 8
  %0 = load ptr, ptr %c.addr, align 8
  call void @llvm.memset.p0.i64(ptr align 4 %0, i8 0, i64 112, i1 false)
  %1 = load ptr, ptr %c.addr, align 8
  %h = getelementptr inbounds %struct.SHA256state_st, ptr %1, i32 0, i32 0
  %arrayidx = getelementptr inbounds [8 x i32], ptr %h, i64 0, i64 0
  store i32 1779033703, ptr %arrayidx, align 4
  %2 = load ptr, ptr %c.addr, align 8
  %h1 = getelementptr inbounds %struct.SHA256state_st, ptr %2, i32 0, i32 0
  %arrayidx2 = getelementptr inbounds [8 x i32], ptr %h1, i64 0, i64 1
  store i32 -1150833019, ptr %arrayidx2, align 4
  %3 = load ptr, ptr %c.addr, align 8
  %h3 = getelementptr inbounds %struct.SHA256state_st, ptr %3, i32 0, i32 0
  %arrayidx4 = getelementptr inbounds [8 x i32], ptr %h3, i64 0, i64 2
  store i32 1013904242, ptr %arrayidx4, align 4
  %4 = load ptr, ptr %c.addr, align 8
  %h5 = getelementptr inbounds %struct.SHA256state_st, ptr %4, i32 0, i32 0
  %arrayidx6 = getelementptr inbounds [8 x i32], ptr %h5, i64 0, i64 3
  store i32 -1521486534, ptr %arrayidx6, align 4
  %5 = load ptr, ptr %c.addr, align 8
  %h7 = getelementptr inbounds %struct.SHA256state_st, ptr %5, i32 0, i32 0
  %arrayidx8 = getelementptr inbounds [8 x i32], ptr %h7, i64 0, i64 4
  store i32 1359893119, ptr %arrayidx8, align 4
  %6 = load ptr, ptr %c.addr, align 8
  %h9 = getelementptr inbounds %struct.SHA256state_st, ptr %6, i32 0, i32 0
  %arrayidx10 = getelementptr inbounds [8 x i32], ptr %h9, i64 0, i64 5
  store i32 -1694144372, ptr %arrayidx10, align 4
  %7 = load ptr, ptr %c.addr, align 8
  %h11 = getelementptr inbounds %struct.SHA256state_st, ptr %7, i32 0, i32 0
  %arrayidx12 = getelementptr inbounds [8 x i32], ptr %h11, i64 0, i64 6
  store i32 528734635, ptr %arrayidx12, align 4
  %8 = load ptr, ptr %c.addr, align 8
  %h13 = getelementptr inbounds %struct.SHA256state_st, ptr %8, i32 0, i32 0
  %arrayidx14 = getelementptr inbounds [8 x i32], ptr %h13, i64 0, i64 7
  store i32 1541459225, ptr %arrayidx14, align 4
  %9 = load ptr, ptr %c.addr, align 8
  %md_len = getelementptr inbounds %struct.SHA256state_st, ptr %9, i32 0, i32 5
  store i32 32, ptr %md_len, align 4
  ret i32 1
}